; ModuleID = 'source-C-CXX/37/1419.cpp'
source_filename = "source-C-CXX/37/1419.cpp"
target datalayout = "e-m:e-p270:32:32-p271:32:32-p272:64:64-i64:64-f80:128-n8:16:32:64-S128"
target triple = "x86_64-pc-linux-gnu"

%"class.std::ios_base::Init" = type { i8 }
%"class.std::basic_istream" = type { i32 (...)**, i64, %"class.std::basic_ios" }
%"class.std::basic_ios" = type { %"class.std::ios_base", %"class.std::basic_ostream"*, i8, i8, %"class.std::basic_streambuf"*, %"class.std::ctype"*, %"class.std::num_put"*, %"class.std::num_get"* }
%"class.std::ios_base" = type { i32 (...)**, i64, i64, i32, i32, i32, %"struct.std::ios_base::_Callback_list"*, %"struct.std::ios_base::_Words", [8 x %"struct.std::ios_base::_Words"], i32, %"struct.std::ios_base::_Words"*, %"class.std::locale" }
%"struct.std::ios_base::_Callback_list" = type { %"struct.std::ios_base::_Callback_list"*, void (i32, %"class.std::ios_base"*, i32)*, i32, i32 }
%"struct.std::ios_base::_Words" = type { i8*, i64 }
%"class.std::locale" = type { %"class.std::locale::_Impl"* }
%"class.std::locale::_Impl" = type { i32, %"class.std::locale::facet"**, i64, %"class.std::locale::facet"**, i8** }
%"class.std::locale::facet" = type <{ i32 (...)**, i32, [4 x i8] }>
%"class.std::basic_ostream" = type { i32 (...)**, %"class.std::basic_ios" }
%"class.std::basic_streambuf" = type { i32 (...)**, i8*, i8*, i8*, i8*, i8*, i8*, %"class.std::locale" }
%"class.std::ctype" = type <{ %"class.std::locale::facet.base", [4 x i8], %struct.__locale_struct*, i8, [7 x i8], i32*, i32*, i16*, i8, [256 x i8], [256 x i8], i8, [6 x i8] }>
%"class.std::locale::facet.base" = type <{ i32 (...)**, i32 }>
%struct.__locale_struct = type { [13 x %struct.__locale_data*], i16*, i32*, i32*, [13 x i8*] }
%struct.__locale_data = type opaque
%"class.std::num_put" = type { %"class.std::locale::facet.base", [4 x i8] }
%"class.std::num_get" = type { %"class.std::locale::facet.base", [4 x i8] }

@_ZStL8__ioinit = internal global %"class.std::ios_base::Init" zeroinitializer, align 1
@__dso_handle = external hidden global i8
@_ZSt3cin = external global %"class.std::basic_istream", align 8
@.str = private unnamed_addr constant [6 x i8] c"%.5f\0A\00", align 1
@llvm.global_ctors = appending global [1 x { i32, void ()*, i8* }] [{ i32, void ()*, i8* } { i32 65535, void ()* @_GLOBAL__sub_I_1419.cpp, i8* null }]

declare void @_ZNSt8ios_base4InitC1Ev(%"class.std::ios_base::Init"* nonnull align 1 dereferenceable(1)) unnamed_addr #0

; Function Attrs: nounwind
declare void @_ZNSt8ios_base4InitD1Ev(%"class.std::ios_base::Init"* nonnull align 1 dereferenceable(1)) unnamed_addr #1

; Function Attrs: nofree nounwind
declare i32 @__cxa_atexit(void (i8*)*, i8*, i8*) local_unnamed_addr #2

; Function Attrs: mustprogress norecurse sspstrong uwtable
define dso_local i32 @main() local_unnamed_addr #3 {
  %1 = alloca i32, align 4
  %2 = alloca i32, align 4
  %3 = alloca [1000 x double], align 16
  %4 = bitcast i32* %1 to i8*
  call void @llvm.lifetime.start.p0i8(i64 4, i8* nonnull %4) #8
  %5 = bitcast i32* %2 to i8*
  call void @llvm.lifetime.start.p0i8(i64 4, i8* nonnull %5) #8
  %6 = bitcast [1000 x double]* %3 to i8*
  call void @llvm.lifetime.start.p0i8(i64 8000, i8* nonnull %6) #8
  %7 = call nonnull align 8 dereferenceable(16) %"class.std::basic_istream"* @_ZNSirsERi(%"class.std::basic_istream"* nonnull align 8 dereferenceable(16) @_ZSt3cin, i32* nonnull align 4 dereferenceable(4) %1)
  %8 = load i32, i32* %1, align 4, !tbaa !5
  %9 = icmp sgt i32 %8, 0
  br i1 %9, label %10, label %75

10:                                               ; preds = %0, %68
  %11 = phi i32 [ %72, %68 ], [ 0, %0 ]
  %12 = call nonnull align 8 dereferenceable(16) %"class.std::basic_istream"* @_ZNSirsERi(%"class.std::basic_istream"* nonnull align 8 dereferenceable(16) @_ZSt3cin, i32* nonnull align 4 dereferenceable(4) %2)
  %13 = load i32, i32* %2, align 4, !tbaa !5
  %14 = icmp sgt i32 %13, 0
  br i1 %14, label %23, label %68

15:                                               ; preds = %23
  %16 = icmp sgt i32 %29, 0
  br i1 %16, label %17, label %68

17:                                               ; preds = %15
  %18 = zext i32 %29 to i64
  %19 = and i64 %18, 1
  %20 = icmp eq i32 %29, 1
  br i1 %20, label %56, label %21

21:                                               ; preds = %17
  %22 = and i64 %18, 4294967294
  br label %36

23:                                               ; preds = %10, %23
  %24 = phi i64 [ %33, %23 ], [ 0, %10 ]
  %25 = phi double [ %32, %23 ], [ 0.000000e+00, %10 ]
  %26 = getelementptr inbounds [1000 x double], [1000 x double]* %3, i64 0, i64 %24
  %27 = call nonnull align 8 dereferenceable(16) %"class.std::basic_istream"* @_ZNSi10_M_extractIdEERSiRT_(%"class.std::basic_istream"* nonnull align 8 dereferenceable(16) @_ZSt3cin, double* nonnull align 8 dereferenceable(8) %26)
  %28 = load double, double* %26, align 8, !tbaa !9
  %29 = load i32, i32* %2, align 4, !tbaa !5
  %30 = sitofp i32 %29 to double
  %31 = fdiv double %28, %30
  %32 = fadd double %25, %31
  %33 = add nuw nsw i64 %24, 1
  %34 = sext i32 %29 to i64
  %35 = icmp slt i64 %33, %34
  br i1 %35, label %23, label %15, !llvm.loop !11

36:                                               ; preds = %36, %21
  %37 = phi i64 [ 0, %21 ], [ %53, %36 ]
  %38 = phi double [ 0.000000e+00, %21 ], [ %52, %36 ]
  %39 = phi i64 [ %22, %21 ], [ %54, %36 ]
  %40 = getelementptr inbounds [1000 x double], [1000 x double]* %3, i64 0, i64 %37
  %41 = load double, double* %40, align 16, !tbaa !9
  %42 = fsub double %41, %32
  %43 = fmul double %42, %42
  %44 = fdiv double %43, %30
  %45 = fadd double %38, %44
  %46 = or i64 %37, 1
  %47 = getelementptr inbounds [1000 x double], [1000 x double]* %3, i64 0, i64 %46
  %48 = load double, double* %47, align 8, !tbaa !9
  %49 = fsub double %48, %32
  %50 = fmul double %49, %49
  %51 = fdiv double %50, %30
  %52 = fadd double %45, %51
  %53 = add nuw nsw i64 %37, 2
  %54 = add i64 %39, -2
  %55 = icmp eq i64 %54, 0
  br i1 %55, label %56, label %36, !llvm.loop !13

56:                                               ; preds = %36, %17
  %57 = phi double [ undef, %17 ], [ %52, %36 ]
  %58 = phi i64 [ 0, %17 ], [ %53, %36 ]
  %59 = phi double [ 0.000000e+00, %17 ], [ %52, %36 ]
  %60 = icmp eq i64 %19, 0
  br i1 %60, label %68, label %61

61:                                               ; preds = %56
  %62 = getelementptr inbounds [1000 x double], [1000 x double]* %3, i64 0, i64 %58
  %63 = load double, double* %62, align 8, !tbaa !9
  %64 = fsub double %63, %32
  %65 = fmul double %64, %64
  %66 = fdiv double %65, %30
  %67 = fadd double %59, %66
  br label %68

68:                                               ; preds = %61, %56, %10, %15
  %69 = phi double [ 0.000000e+00, %15 ], [ 0.000000e+00, %10 ], [ %57, %56 ], [ %67, %61 ]
  %70 = call double @sqrt(double %69) #8
  %71 = call i32 (i8*, ...) @printf(i8* nonnull dereferenceable(1) getelementptr inbounds ([6 x i8], [6 x i8]* @.str, i64 0, i64 0), double %70)
  %72 = add nuw nsw i32 %11, 1
  %73 = load i32, i32* %1, align 4, !tbaa !5
  %74 = icmp slt i32 %72, %73
  br i1 %74, label %10, label %75, !llvm.loop !14

75:                                               ; preds = %68, %0
  call void @llvm.lifetime.end.p0i8(i64 8000, i8* nonnull %6) #8
  call void @llvm.lifetime.end.p0i8(i64 4, i8* nonnull %5) #8
  call void @llvm.lifetime.end.p0i8(i64 4, i8* nonnull %4) #8
  ret i32 0
}

; Function Attrs: argmemonly mustprogress nofree nosync nounwind willreturn
declare void @llvm.lifetime.start.p0i8(i64 immarg, i8* nocapture) #4

declare nonnull align 8 dereferenceable(16) %"class.std::basic_istream"* @_ZNSirsERi(%"class.std::basic_istream"* nonnull align 8 dereferenceable(16), i32* nonnull align 4 dereferenceable(4)) local_unnamed_addr #0

; Function Attrs: mustprogress nofree nounwind willreturn
declare double @sqrt(double) local_unnamed_addr #5

; Function Attrs: nofree nounwind
declare noundef i32 @printf(i8* nocapture noundef readonly, ...) local_unnamed_addr #6

; Function Attrs: argmemonly mustprogress nofree nosync nounwind willreturn
declare void @llvm.lifetime.end.p0i8(i64 immarg, i8* nocapture) #4

declare nonnull align 8 dereferenceable(16) %"class.std::basic_istream"* @_ZNSi10_M_extractIdEERSiRT_(%"class.std::basic_istream"* nonnull align 8 dereferenceable(16), double* nonnull align 8 dereferenceable(8)) local_unnamed_addr #0

; Function Attrs: sspstrong uwtable
define internal void @_GLOBAL__sub_I_1419.cpp() #7 section ".text.startup" {
  tail call void @_ZNSt8ios_base4InitC1Ev(%"class.std::ios_base::Init"* nonnull align 1 dereferenceable(1) @_ZStL8__ioinit)
  %1 = tail call i32 @__cxa_atexit(void (i8*)* bitcast (void (%"class.std::ios_base::Init"*)* @_ZNSt8ios_base4InitD1Ev to void (i8*)*), i8* getelementptr inbounds (%"class.std::ios_base::Init", %"class.std::ios_base::Init"* @_ZStL8__ioinit, i64 0, i32 0), i8* nonnull @__dso_handle) #8
  ret void
}


!llvm.module.flags = !{!0, !1, !2, !3}
!llvm.ident = !{!4}

!0 = !{i32 1, !"wchar_size", i32 4}
!1 = !{i32 7, !"PIC Level", i32 2}
!2 = !{i32 7, !"PIE Level", i32 2}
!3 = !{i32 7, !"uwtable", i32 1}
!4 = !{!"clang version 13.0.0"}
!5 = !{!6, !6, i64 0}
!6 = !{!"int", !7, i64 0}
!7 = !{!"omnipotent char", !8, i64 0}
!8 = !{!"Simple C++ TBAA"}
!9 = !{!10, !10, i64 0}
!10 = !{!"double", !7, i64 0}
!11 = distinct !{!11, !12}
!12 = !{!"llvm.loop.mustprogress"}
!13 = distinct !{!13, !12}
!14 = distinct !{!14, !12}
